; Function Attrs: nounwind uwtable
define internal range(i32 -1, 1) i32 @warnings_module_exec(ptr noundef %0) #0 {
  %2 = tail call align 8 ptr @llvm.threadlocal.address.p0(ptr align 8 @_Py_tss_tstate)
  %3 = load ptr, ptr %2, align 8, !tbaa !27
  %4 = getelementptr inbounds nuw i8, ptr %3, i64 16
  %5 = load ptr, ptr %4, align 8, !tbaa !29
  %6 = icmp eq ptr %5, null
  br i1 %6, label %get_current_interp.exit.thread, label %8

get_current_interp.exit.thread:                   ; preds = %1
  %7 = load ptr, ptr @PyExc_RuntimeError, align 8, !tbaa !14
  tail call void @PyErr_SetString(ptr noundef %7, ptr noundef nonnull @.str.7) #7
  br label %22

8:                                                ; preds = %1
  %9 = getelementptr inbounds nuw i8, ptr %5, i64 10672
  %10 = load ptr, ptr %9, align 8, !tbaa !4
  %11 = tail call i32 @PyModule_AddObjectRef(ptr noundef %0, ptr noundef nonnull @.str.52, ptr noundef %10) #7
  %12 = icmp slt i32 %11, 0
  br i1 %12, label %22, label %13

13:                                               ; preds = %8
  %14 = getelementptr inbounds nuw i8, ptr %5, i64 10680
  %15 = load ptr, ptr %14, align 8, !tbaa !24
  %16 = tail call i32 @PyModule_AddObjectRef(ptr noundef %0, ptr noundef nonnull @.str.53, ptr noundef %15) #7
  %17 = icmp slt i32 %16, 0
  br i1 %17, label %22, label %18

18:                                               ; preds = %13
  %19 = getelementptr inbounds nuw i8, ptr %5, i64 10688
  %20 = load ptr, ptr %19, align 8, !tbaa !25
  %21 = tail call i32 @PyModule_AddObjectRef(ptr noundef %0, ptr noundef nonnull @.str.54, ptr noundef %20) #7
  %.lobit = ashr i32 %21, 31
  br label %22

22:                                               ; preds = %get_current_interp.exit.thread, %8, %13, %18
  %.0 = phi i32 [ -1, %8 ], [ -1, %13 ], [ %.lobit, %18 ], [ -1, %get_current_interp.exit.thread ]
  ret i32 %.0
}